target datalayout = "e-m:e-p270:32:32-p271:32:32-p272:64:64-i64:64-i128:128-f80:128-n8:16:32:64-S128"
target triple = "x86_64-unknown-linux-gnu"

module asm ".section\09\22.initcall6.init\22, \22a\22\09\09"
module asm "__initcall__kmod_vdso32_setup__289_77_ia32_binfmt_init6:\09\09\09"
module asm ".long\09ia32_binfmt_init - .\09"
module asm ".previous\09\09\09\09\09"

%struct.obs_kernel_param = type { ptr, ptr, i32 }
%struct.ctl_table = type { ptr, ptr, i32, i16, i32, ptr, ptr, ptr, ptr }

@vdso32_enabled = dso_local global i32 1, section ".data..read_mostly", align 4
@__setup_str_vdso32_setup = internal constant [8 x i8] c"vdso32=\00", section ".init.rodata", align 1
@__setup_vdso32_setup = internal global %struct.obs_kernel_param { ptr @__setup_str_vdso32_setup, ptr @vdso32_setup, i32 0 }, section ".init.setup", align 8
@__UNIQUE_ID___addressable_ia32_binfmt_init290 = internal global ptr @ia32_binfmt_init, section ".discard.addressable", align 8
@.str = private unnamed_addr constant [73 x i8] c"\014vdso32 values other than 0 and 1 are no longer allowed; vdso disabled\0A\00", align 1
@.str.1 = private unnamed_addr constant [4 x i8] c"abi\00", align 1
@abi_table2 = internal global [1 x %struct.ctl_table] [%struct.ctl_table { ptr @.str.2, ptr @vdso32_enabled, i32 4, i16 420, i32 0, ptr @proc_dointvec_minmax, ptr null, ptr @sysctl_vals, ptr getelementptr (i8, ptr @sysctl_vals, i64 4) }], align 16
@.str.2 = private unnamed_addr constant [11 x i8] c"vsyscall32\00", align 1
@sysctl_vals = external dso_local constant [0 x i32], align 4
@llvm.compiler.used = appending global [2 x ptr] [ptr @__UNIQUE_ID___addressable_ia32_binfmt_init290, ptr @__setup_vdso32_setup], section "llvm.metadata"

; Function Attrs: cold fn_ret_thunk_extern nounwind null_pointer_is_valid optsize
define internal noundef i32 @vdso32_setup(ptr noundef %0) #0 section ".init.text" align 16 {
  %2 = tail call i64 @simple_strtoul(ptr noundef %0, ptr noundef null, i32 noundef 0) #3
  %3 = trunc i64 %2 to i32
  store i32 %3, ptr @vdso32_enabled, align 4
  %4 = icmp ugt i32 %3, 1
  br i1 %4, label %5, label %7

5:                                                ; preds = %1
  %6 = tail call i32 (ptr, ...) @_printk(ptr noundef nonnull @.str) #4
  store i32 0, ptr @vdso32_enabled, align 4
  br label %7

7:                                                ; preds = %5, %1
  ret i32 1
}

; Function Attrs: cold fn_ret_thunk_extern nounwind null_pointer_is_valid optsize
define internal noundef i32 @ia32_binfmt_init() #0 section ".init.text" align 16 {
  %1 = tail call ptr @register_sysctl_sz(ptr noundef nonnull @.str.1, ptr noundef nonnull @abi_table2, i64 noundef 1) #3
  ret i32 0
}

; Function Attrs: null_pointer_is_valid
declare dso_local i64 @simple_strtoul(ptr noundef, ptr noundef, i32 noundef) local_unnamed_addr #1

; Function Attrs: cold null_pointer_is_valid
declare dso_local i32 @_printk(ptr noundef, ...) local_unnamed_addr #2

; Function Attrs: null_pointer_is_valid
declare dso_local ptr @register_sysctl_sz(ptr noundef, ptr noundef, i64 noundef) local_unnamed_addr #1

; Function Attrs: null_pointer_is_valid
declare dso_local i32 @proc_dointvec_minmax(ptr noundef, i32 noundef, ptr noundef, ptr noundef, ptr noundef) #1


!llvm.module.flags = !{!0, !1, !2, !3, !4}

!0 = !{i32 1, !"wchar_size", i32 2}
!1 = !{i32 8, !"cf-protection-branch", i32 1}
!2 = !{i32 4, !"function_return_thunk_extern", i32 1}
!3 = !{i32 4, !"indirect_branch_cs_prefix", i32 1}
!4 = !{i32 4, !"SkipRaxSetup", i32 1}
